target datalayout = "e-m:e-p270:32:32-p271:32:32-p272:64:64-i64:64-i128:128-f80:128-n8:16:32:64-S128"
target triple = "x86_64-pc-linux-gnu"

@_ZN12colvarmodule5proxyE = global ptr null, align 8

; Function Attrs: mustprogress uwtable
define noundef i32 @_ZN12colvarmodule11backup_fileEPKc(ptr noundef %0) #4 align 2 {
  %2 = alloca ptr, align 8
  store ptr %0, ptr %2, align 8
  %3 = load ptr, ptr @_ZN12colvarmodule5proxyE, align 8
  %4 = getelementptr inbounds i8, ptr %3, i64 840
  %5 = load ptr, ptr %2, align 8
  %6 = load ptr, ptr %4, align 8
  %7 = getelementptr inbounds ptr, ptr %6, i64 5
  %8 = load ptr, ptr %7, align 8
  %9 = call noundef i32 %8(ptr noundef nonnull align 8 dereferenceable(224) %4, ptr noundef %5)
  ret i32 %9
}