; Function Attrs: mustprogress uwtable
define noundef i32 @_ZN12colvarmodule11backup_fileEPKc(ptr noundef %0) local_unnamed_addr #3 align 2 {
  %2 = load ptr, ptr @_ZN12colvarmodule5proxyE, align 8
  %3 = getelementptr inbounds i8, ptr %2, i64 840
  %4 = load ptr, ptr %3, align 8
  %5 = getelementptr inbounds i8, ptr %4, i64 40
  %6 = load ptr, ptr %5, align 8
  %7 = tail call noundef i32 %6(ptr noundef nonnull align 8 dereferenceable(224) %3, ptr noundef %0)
  ret i32 %7
}